target datalayout = "e-m:e-p270:32:32-p271:32:32-p272:64:64-i64:64-i128:128-f80:128-n8:16:32:64-S128"
target triple = "x86_64-pc-linux-gnu"

%"class.llvm::CombinerHelper" = type { ptr, ptr, ptr, ptr, ptr, i8, ptr, ptr, ptr }
%"struct.llvm::LegalizeActionStep" = type { i8, i32, %"class.llvm::LLT" }
%"class.llvm::LLT" = type { i64 }

; Function Attrs: mustprogress nounwind uwtable
define dso_local noundef zeroext i1 @_ZNK4llvm14CombinerHelper7isLegalERKNS_13LegalityQueryE(ptr noundef nonnull align 8 dereferenceable(72) %0, ptr noundef nonnull align 8 dereferenceable(40) %1) #1 align 2 {
  %3 = alloca ptr, align 8
  %4 = alloca ptr, align 8
  %5 = alloca %"struct.llvm::LegalizeActionStep", align 8
  store ptr %0, ptr %3, align 8
  store ptr %1, ptr %4, align 8
  %6 = load ptr, ptr %3, align 8
  %7 = getelementptr inbounds nuw %"class.llvm::CombinerHelper", ptr %6, i32 0, i32 6
  %8 = load ptr, ptr %7, align 8
  %9 = load ptr, ptr %4, align 8
  %10 = call { i64, i64 } @_ZNK4llvm13LegalizerInfo9getActionERKNS_13LegalityQueryE(ptr noundef nonnull align 8 dereferenceable(121040) %8, ptr noundef nonnull align 8 dereferenceable(40) %9)
  %11 = getelementptr inbounds nuw { i64, i64 }, ptr %5, i32 0, i32 0
  %12 = extractvalue { i64, i64 } %10, 0
  store i64 %12, ptr %11, align 8
  %13 = getelementptr inbounds nuw { i64, i64 }, ptr %5, i32 0, i32 1
  %14 = extractvalue { i64, i64 } %10, 1
  store i64 %14, ptr %13, align 8
  %15 = getelementptr inbounds nuw %"struct.llvm::LegalizeActionStep", ptr %5, i32 0, i32 0
  %16 = load i8, ptr %15, align 8
  %17 = zext i8 %16 to i32
  %18 = icmp eq i32 %17, 0
  ret i1 %18
}