; Function Attrs: mustprogress nounwind uwtable
define dso_local noundef zeroext i1 @_ZNK4llvm14CombinerHelper7isLegalERKNS_13LegalityQueryE(ptr nocapture noundef nonnull readonly align 8 dereferenceable(72) %0, ptr noundef nonnull align 8 dereferenceable(40) %1) local_unnamed_addr #0 align 2 {
  %3 = getelementptr inbounds nuw i8, ptr %0, i64 48
  %4 = load ptr, ptr %3, align 8
  %5 = tail call { i64, i64 } @_ZNK4llvm13LegalizerInfo9getActionERKNS_13LegalityQueryE(ptr noundef nonnull align 8 dereferenceable(121040) %4, ptr noundef nonnull align 8 dereferenceable(40) %1) #27
  %6 = extractvalue { i64, i64 } %5, 0
  %7 = and i64 %6, 255
  %8 = icmp eq i64 %7, 0
  ret i1 %8
}